; Function Attrs: nounwind uwtable
define i32 @PMIx_Get_relative_locality(ptr noundef %0, ptr noundef %1, ptr noundef %2) local_unnamed_addr #0 {
  %4 = tail call i32 @pthread_mutex_lock(ptr noundef nonnull getelementptr inbounds nuw (i8, ptr @pmix_global_lock, i64 128)) #12
  %5 = load volatile i8, ptr getelementptr inbounds nuw (i8, ptr @pmix_global_lock, i64 216), align 8, !tbaa !3, !range !14, !noundef !15
  %6 = trunc nuw i8 %5 to i1
  br i1 %6, label %.lr.ph, label %._crit_edge

.lr.ph:                                           ; preds = %3, %.lr.ph
  %7 = tail call i32 @pthread_cond_wait(ptr noundef nonnull getelementptr inbounds nuw (i8, ptr @pmix_global_lock, i64 168), ptr noundef nonnull getelementptr inbounds nuw (i8, ptr @pmix_global_lock, i64 128)) #12
  %8 = load volatile i8, ptr getelementptr inbounds nuw (i8, ptr @pmix_global_lock, i64 216), align 8, !tbaa !3, !range !14, !noundef !15
  %9 = trunc nuw i8 %8 to i1
  br i1 %9, label %.lr.ph, label %._crit_edge, !llvm.loop !70

._crit_edge:                                      ; preds = %.lr.ph, %3
  fence acquire
  store volatile i8 1, ptr getelementptr inbounds nuw (i8, ptr @pmix_global_lock, i64 216), align 8, !tbaa !3
  %10 = load i32, ptr @pmix_globals, align 8, !tbaa !18
  %11 = icmp slt i32 %10, 1
  store volatile i8 0, ptr getelementptr inbounds nuw (i8, ptr @pmix_global_lock, i64 216), align 8, !tbaa !3
  fence release
  %12 = tail call i32 @pthread_cond_broadcast(ptr noundef nonnull getelementptr inbounds nuw (i8, ptr @pmix_global_lock, i64 168)) #12
  %13 = tail call i32 @pthread_mutex_unlock(ptr noundef nonnull getelementptr inbounds nuw (i8, ptr @pmix_global_lock, i64 128)) #12
  br i1 %11, label %16, label %14

14:                                               ; preds = %._crit_edge
  %15 = tail call i32 @pmix_hwloc_get_relative_locality(ptr noundef %0, ptr noundef %1, ptr noundef %2) #12
  br label %16

16:                                               ; preds = %._crit_edge, %14
  %.0 = phi i32 [ %15, %14 ], [ -31, %._crit_edge ]
  ret i32 %.0
}